(lp0
S'jules/output/sensitivity_runs/crp_g_110_6.631_0.1866_0.00057.3_hourly.nc'
p1
aS'jules/output/sensitivity_runs/crp_g_77_6.8535_0.17727_0.000573.3_hourly.nc'
p2
aS'jules/output/sensitivity_runs/crp_g_120_5.2813_0.18236_0.000607.3_hourly.nc'
p3
aS'jules/output/sensitivity_runs/crp_g_105_5.7564_0.21438_0.000455.3_hourly.nc'
p4
aS'jules/output/sensitivity_runs/crp_g_119_6.6482_0.18441_0.000527.3_hourly.nc'
p5
aS'jules/output/sensitivity_runs/crp_g_110_7.5528_0.16875_0.000565.3_hourly.nc'
p6
aS'jules/output/sensitivity_runs/crp_g_123_5.3129_0.19005_0.000624.3_hourly.nc'
p7
aS'jules/output/sensitivity_runs/crp_g_93_7.5985_0.17324_0.000668.3_hourly.nc'
p8
aS'jules/output/sensitivity_runs/crp_g_124_5.7362_0.18600_0.000613.3_hourly.nc'
p9
aS'jules/output/sensitivity_runs/crp_g_93_6.7871_0.18115_0.000515.3_hourly.nc'
p10
aS'jules/output/sensitivity_runs/crp_g_99_6.3349_0.17684_0.000607.3_hourly.nc'
p11
aS'jules/output/sensitivity_runs/crp_g_109_6.4998_0.19764_0.000523.3_hourly.nc'
p12
aS'jules/output/sensitivity_runs/crp_g_93_7.8776_0.16177_0.000648.3_hourly.nc'
p13
aS'jules/output/sensitivity_runs/crp_g_96_5.6542_0.20943_0.000512.3_hourly.nc'
p14
aS'jules/output/sensitivity_runs/crp_g_95_6.6335_0.15760_0.000579.3_hourly.nc'
p15
aS'jules/output/sensitivity_runs/crp_g_114_6.8068_0.17049_0.000554.3_hourly.nc'
p16
aS'jules/output/sensitivity_runs/crp_g_105_6.4202_0.22363_0.000443.3_hourly.nc'
p17
aS'jules/output/sensitivity_runs/crp_g_122_6.9655_0.21246_0.000583.3_hourly.nc'
p18
aS'jules/output/sensitivity_runs/crp_g_101_7.6885_0.18316_0.000627.3_hourly.nc'
p19
aS'jules/output/sensitivity_runs/crp_g_116_5.8610_0.22712_0.000527.3_hourly.nc'
p20
aS'jules/output/sensitivity_runs/crp_g_112_6.6221_0.16955_0.000606.3_hourly.nc'
p21
aS'jules/output/sensitivity_runs/crp_g_105_7.7597_0.19718_0.000548.3_hourly.nc'
p22
aS'jules/output/sensitivity_runs/crp_g_91_6.9730_0.22183_0.000493.3_hourly.nc'
p23
aS'jules/output/sensitivity_runs/crp_g_108_6.3283_0.19241_0.000579.3_hourly.nc'
p24
aS'jules/output/sensitivity_runs/crp_g_113_6.3771_0.20548_0.000534.3_hourly.nc'
p25
aS'jules/output/sensitivity_runs/crp_g_104_6.7995_0.22262_0.000597.3_hourly.nc'
p26
aS'jules/output/sensitivity_runs/crp_g_110_7.3481_0.19211_0.000516.3_hourly.nc'
p27
aS'jules/output/sensitivity_runs/crp_g_114_6.8378_0.17353_0.000517.3_hourly.nc'
p28
aS'jules/output/sensitivity_runs/crp_g_94_6.5923_0.20616_0.000585.3_hourly.nc'
p29
aS'jules/output/sensitivity_runs/crp_g_112_7.9106_0.18594_0.000541.3_hourly.nc'
p30
aS'jules/output/sensitivity_runs/crp_g_108_7.6811_0.18924_0.000587.3_hourly.nc'
p31
aS'jules/output/sensitivity_runs/crp_g_108_7.3045_0.17671_0.000525.3_hourly.nc'
p32
aS'jules/output/sensitivity_runs/crp_g_124_5.9753_0.17413_0.000545.3_hourly.nc'
p33
aS'jules/output/sensitivity_runs/crp_g_109_6.6990_0.18804_0.000590.3_hourly.nc'
p34
aS'jules/output/sensitivity_runs/crp_g_100_6.5192_0.18905_0.000498.3_hourly.nc'
p35
aS'jules/output/sensitivity_runs/crp_g_102_7.0376_0.19048_0.000605.3_hourly.nc'
p36
aS'jules/output/sensitivity_runs/crp_g_126_6.2384_0.15522_0.000625.3_hourly.nc'
p37
aS'jules/output/sensitivity_runs/crp_g_112_5.6856_0.17172_0.000630.3_hourly.nc'
p38
aS'jules/output/sensitivity_runs/crp_g_112_7.2121_0.19768_0.000494.3_hourly.nc'
p39
aS'jules/output/sensitivity_runs/crp_g_117_6.2017_0.20932_0.000649.3_hourly.nc'
p40
aS'jules/output/sensitivity_runs/crp_g_119_6.0215_0.16217_0.000553.3_hourly.nc'
p41
aS'jules/output/sensitivity_runs/crp_g_107_6.7604_0.18030_0.000580.3_hourly.nc'
p42
aS'jules/output/sensitivity_runs/crp_g_118_7.7853_0.16349_0.000587.3_hourly.nc'
p43
aS'jules/output/sensitivity_runs/crp_g_93_6.5986_0.21581_0.000517.3_hourly.nc'
p44
aS'jules/output/sensitivity_runs/crp_g_128_7.1189_0.20436_0.000578.3_hourly.nc'
p45
aS'jules/output/sensitivity_runs/crp_g_118_5.9884_0.19498_0.000568.3_hourly.nc'
p46
aS'jules/output/sensitivity_runs/crp_g_109_6.9412_0.20864_0.000514.3_hourly.nc'
p47
aS'jules/output/sensitivity_runs/crp_g_86_6.6924_0.16936_0.000515.3_hourly.nc'
p48
aS'jules/output/sensitivity_runs/crp_g_128_6.8807_0.14199_0.000581.3_hourly.nc'
p49
aS'jules/output/sensitivity_runs/crp_g_131_7.3384_0.19075_0.000751.3_hourly.nc'
p50
aS'jules/output/sensitivity_runs/crp_g_108_6.9177_0.18550_0.000574.3_hourly.nc'
p51
aS'jules/output/sensitivity_runs/crp_g_122_6.7073_0.15902_0.000503.3_hourly.nc'
p52
aS'jules/output/sensitivity_runs/crp_g_94_6.7951_0.21621_0.000578.3_hourly.nc'
p53
aS'jules/output/sensitivity_runs/crp_g_109_7.1372_0.17712_0.000614.3_hourly.nc'
p54
aS'jules/output/sensitivity_runs/crp_g_98_6.7687_0.18976_0.000544.3_hourly.nc'
p55
aS'jules/output/sensitivity_runs/crp_g_106_6.2807_0.19128_0.000528.3_hourly.nc'
p56
aS'jules/output/sensitivity_runs/crp_g_111_6.4705_0.18391_0.000648.3_hourly.nc'
p57
aS'jules/output/sensitivity_runs/crp_g_125_6.2103_0.15189_0.000518.3_hourly.nc'
p58
aS'jules/output/sensitivity_runs/crp_g_94_7.3916_0.17624_0.000642.3_hourly.nc'
p59
aS'jules/output/sensitivity_runs/crp_g_102_8.0122_0.21017_0.000602.3_hourly.nc'
p60
aS'jules/output/sensitivity_runs/crp_g_118_6.3056_0.17622_0.000534.3_hourly.nc'
p61
aS'jules/output/sensitivity_runs/crp_g_106_7.3799_0.22003_0.000651.3_hourly.nc'
p62
aS'jules/output/sensitivity_runs/crp_g_110_6.8404_0.19065_0.000457.3_hourly.nc'
p63
aS'jules/output/sensitivity_runs/crp_g_99_7.8734_0.17742_0.000648.3_hourly.nc'
p64
aS'jules/output/sensitivity_runs/crp_g_109_7.0475_0.17509_0.000525.3_hourly.nc'
p65
aS'jules/output/sensitivity_runs/crp_g_118_6.7596_0.19962_0.000554.3_hourly.nc'
p66
aS'jules/output/sensitivity_runs/crp_g_126_7.2521_0.22172_0.000589.3_hourly.nc'
p67
aS'jules/output/sensitivity_runs/crp_g_116_7.6780_0.21543_0.000624.3_hourly.nc'
p68
aS'jules/output/sensitivity_runs/crp_g_107_5.3186_0.15734_0.000589.3_hourly.nc'
p69
aS'jules/output/sensitivity_runs/crp_g_109_6.7366_0.17185_0.000614.3_hourly.nc'
p70
aS'jules/output/sensitivity_runs/crp_g_95_7.0863_0.17852_0.000580.3_hourly.nc'
p71
aS'jules/output/sensitivity_runs/crp_g_108_5.1109_0.20156_0.000637.3_hourly.nc'
p72
aS'jules/output/sensitivity_runs/crp_g_138_6.6184_0.21421_0.000581.3_hourly.nc'
p73
aS'jules/output/sensitivity_runs/crp_g_127_7.2321_0.18770_0.000554.3_hourly.nc'
p74
aS'jules/output/sensitivity_runs/crp_g_98_6.5122_0.20054_0.000480.3_hourly.nc'
p75
aS'jules/output/sensitivity_runs/crp_g_107_7.3579_0.15501_0.000585.3_hourly.nc'
p76
aS'jules/output/sensitivity_runs/crp_g_116_6.4752_0.18829_0.000536.3_hourly.nc'
p77
aS'jules/output/sensitivity_runs/crp_g_136_6.9030_0.16750_0.000563.3_hourly.nc'
p78
aS'jules/output/sensitivity_runs/crp_g_123_7.2119_0.13796_0.000624.3_hourly.nc'
p79
aS'jules/output/sensitivity_runs/crp_g_94_7.9241_0.21000_0.000627.3_hourly.nc'
p80
aS'jules/output/sensitivity_runs/crp_g_98_5.8296_0.15250_0.000618.3_hourly.nc'
p81
aS'jules/output/sensitivity_runs/crp_g_141_6.0698_0.19100_0.000500.3_hourly.nc'
p82
aS'jules/output/sensitivity_runs/crp_g_122_7.1635_0.14165_0.000577.3_hourly.nc'
p83
aS'jules/output/sensitivity_runs/crp_g_113_6.8465_0.21499_0.000520.3_hourly.nc'
p84
aS'jules/output/sensitivity_runs/crp_g_115_7.0130_0.23748_0.000650.3_hourly.nc'
p85
aS'jules/output/sensitivity_runs/crp_g_122_5.3791_0.17910_0.000580.3_hourly.nc'
p86
aS'jules/output/sensitivity_runs/crp_g_103_6.4139_0.19032_0.000690.3_hourly.nc'
p87
aS'jules/output/sensitivity_runs/crp_g_112_7.3434_0.21942_0.000578.3_hourly.nc'
p88
aS'jules/output/sensitivity_runs/crp_g_128_6.5904_0.20287_0.000527.3_hourly.nc'
p89
aS'jules/output/sensitivity_runs/crp_g_118_6.5797_0.19693_0.000539.3_hourly.nc'
p90
aS'jules/output/sensitivity_runs/crp_g_112_7.0206_0.19423_0.000685.3_hourly.nc'
p91
aS'jules/output/sensitivity_runs/crp_g_104_6.0461_0.17124_0.000528.3_hourly.nc'
p92
aS'jules/output/sensitivity_runs/crp_g_133_8.3854_0.16264_0.000586.3_hourly.nc'
p93
aS'jules/output/sensitivity_runs/crp_g_118_7.6138_0.19032_0.000575.3_hourly.nc'
p94
aS'jules/output/sensitivity_runs/crp_g_89_5.8982_0.16178_0.000540.3_hourly.nc'
p95
aS'jules/output/sensitivity_runs/crp_g_127_7.1080_0.19775_0.000557.3_hourly.nc'
p96
aS'jules/output/sensitivity_runs/crp_g_95_6.6592_0.18040_0.000571.3_hourly.nc'
p97
aS'jules/output/sensitivity_runs/crp_g_101_6.8150_0.17533_0.000513.3_hourly.nc'
p98
aS'jules/output/sensitivity_runs/crp_g_107_6.4264_0.20946_0.000458.3_hourly.nc'
p99
aS'jules/output/sensitivity_runs/crp_g_126_6.3158_0.20564_0.000510.3_hourly.nc'
p100
aS'jules/output/sensitivity_runs/crp_g_99_8.0496_0.20745_0.000561.3_hourly.nc'
p101
a.