(lp0
S'jules/output/sensitivity_runs/crp_g_100_6.5192_0.18905_0.000498.3_hourly.nc'
p1
aS'jules/output/sensitivity_runs/crp_g_108_6.9177_0.18550_0.000574.3_hourly.nc'
p2
aS'jules/output/sensitivity_runs/crp_g_123_7.2119_0.13796_0.000624.3_hourly.nc'
p3
aS'jules/output/sensitivity_runs/crp_g_109_7.0475_0.17509_0.000525.3_hourly.nc'
p4
aS'jules/output/sensitivity_runs/crp_g_115_7.0130_0.23748_0.000650.3_hourly.nc'
p5
aS'jules/output/sensitivity_runs/crp_g_93_7.5985_0.17324_0.000668.3_hourly.nc'
p6
aS'jules/output/sensitivity_runs/crp_g_126_7.2521_0.22172_0.000589.3_hourly.nc'
p7
aS'jules/output/sensitivity_runs/crp_g_118_6.7596_0.19962_0.000554.3_hourly.nc'
p8
aS'jules/output/sensitivity_runs/crp_g_104_6.7995_0.22262_0.000597.3_hourly.nc'
p9
aS'jules/output/sensitivity_runs/crp_g_98_6.5122_0.20054_0.000480.3_hourly.nc'
p10
aS'jules/output/sensitivity_runs/crp_g_118_5.9884_0.19498_0.000568.3_hourly.nc'
p11
aS'jules/output/sensitivity_runs/crp_g_133_8.3854_0.16264_0.000586.3_hourly.nc'
p12
aS'jules/output/sensitivity_runs/crp_g_112_7.3434_0.21942_0.000578.3_hourly.nc'
p13
aS'jules/output/sensitivity_runs/crp_g_86_6.6924_0.16936_0.000515.3_hourly.nc'
p14
aS'jules/output/sensitivity_runs/crp_g_99_7.8734_0.17742_0.000648.3_hourly.nc'
p15
aS'jules/output/sensitivity_runs/crp_g_103_6.4139_0.19032_0.000690.3_hourly.nc'
p16
aS'jules/output/sensitivity_runs/crp_g_108_5.1109_0.20156_0.000637.3_hourly.nc'
p17
aS'jules/output/sensitivity_runs/crp_g_105_5.7564_0.21438_0.000455.3_hourly.nc'
p18
aS'jules/output/sensitivity_runs/crp_g_122_7.1635_0.14165_0.000577.3_hourly.nc'
p19
aS'jules/output/sensitivity_runs/crp_g_113_6.8465_0.21499_0.000520.3_hourly.nc'
p20
aS'jules/output/sensitivity_runs/crp_g_131_7.3384_0.19075_0.000751.3_hourly.nc'
p21
aS'jules/output/sensitivity_runs/crp_g_93_6.7871_0.18115_0.000515.3_hourly.nc'
p22
aS'jules/output/sensitivity_runs/crp_g_101_7.6885_0.18316_0.000627.3_hourly.nc'
p23
aS'jules/output/sensitivity_runs/crp_g_136_6.9030_0.16750_0.000563.3_hourly.nc'
p24
aS'jules/output/sensitivity_runs/crp_g_118_6.5797_0.19693_0.000539.3_hourly.nc'
p25
aS'jules/output/sensitivity_runs/crp_g_141_6.0698_0.19100_0.000500.3_hourly.nc'
p26
aS'jules/output/sensitivity_runs/crp_g_122_6.7073_0.15902_0.000503.3_hourly.nc'
p27
aS'jules/output/sensitivity_runs/crp_g_110_6.8404_0.19065_0.000457.3_hourly.nc'
p28
aS'jules/output/sensitivity_runs/crp_g_109_6.7366_0.17185_0.000614.3_hourly.nc'
p29
aS'jules/output/sensitivity_runs/crp_g_107_7.3579_0.15501_0.000585.3_hourly.nc'
p30
aS'jules/output/sensitivity_runs/crp_g_112_6.6221_0.16955_0.000606.3_hourly.nc'
p31
aS'jules/output/sensitivity_runs/crp_g_128_6.8807_0.14199_0.000581.3_hourly.nc'
p32
aS'jules/output/sensitivity_runs/crp_g_105_7.7597_0.19718_0.000548.3_hourly.nc'
p33
aS'jules/output/sensitivity_runs/crp_g_114_6.8068_0.17049_0.000554.3_hourly.nc'
p34
aS'jules/output/sensitivity_runs/crp_g_98_6.7687_0.18976_0.000544.3_hourly.nc'
p35
aS'jules/output/sensitivity_runs/crp_g_104_6.0461_0.17124_0.000528.3_hourly.nc'
p36
aS'jules/output/sensitivity_runs/crp_g_111_6.4705_0.18391_0.000648.3_hourly.nc'
p37
aS'jules/output/sensitivity_runs/crp_g_123_5.3129_0.19005_0.000624.3_hourly.nc'
p38
aS'jules/output/sensitivity_runs/crp_g_126_6.2384_0.15522_0.000625.3_hourly.nc'
p39
aS'jules/output/sensitivity_runs/crp_g_102_8.0122_0.21017_0.000602.3_hourly.nc'
p40
aS'jules/output/sensitivity_runs/crp_g_119_6.6482_0.18441_0.000527.3_hourly.nc'
p41
aS'jules/output/sensitivity_runs/crp_g_112_7.9106_0.18594_0.000541.3_hourly.nc'
p42
aS'jules/output/sensitivity_runs/crp_g_119_6.0215_0.16217_0.000553.3_hourly.nc'
p43
aS'jules/output/sensitivity_runs/crp_g_116_5.8610_0.22712_0.000527.3_hourly.nc'
p44
aS'jules/output/sensitivity_runs/crp_g_122_5.3791_0.17910_0.000580.3_hourly.nc'
p45
aS'jules/output/sensitivity_runs/crp_g_89_5.8982_0.16178_0.000540.3_hourly.nc'
p46
aS'jules/output/sensitivity_runs/crp_g_124_5.9753_0.17413_0.000545.3_hourly.nc'
p47
aS'jules/output/sensitivity_runs/crp_g_116_6.4752_0.18829_0.000536.3_hourly.nc'
p48
aS'jules/output/sensitivity_runs/crp_g_99_8.0496_0.20745_0.000561.3_hourly.nc'
p49
aS'jules/output/sensitivity_runs/crp_g_108_6.3283_0.19241_0.000579.3_hourly.nc'
p50
a.